; Function Attrs: uwtable
define void @_ZThn24_N3zmq8reaper_t11timer_eventEi(ptr nocapture readnone %this, i32 %0) unnamed_addr #10 align 2 {
entry:
  %1 = load ptr, ptr @stderr, align 8
  %call.i = tail call i32 (ptr, ptr, ...) @fprintf(ptr noundef %1, ptr noundef nonnull @.str.3, ptr noundef nonnull @.str.7, ptr noundef nonnull @.str.1, i32 noundef 88) #13
  %2 = load ptr, ptr @stderr, align 8
  %call2.i = tail call i32 @fflush(ptr noundef %2)
  tail call void @_ZN3zmq9zmq_abortEPKc(ptr noundef nonnull @.str.7)
  ret void
}